target datalayout = "e-m:e-p270:32:32-p271:32:32-p272:64:64-i64:64-i128:128-f80:128-n8:16:32:64-S128"
target triple = "x86_64-pc-linux-gnu"

%struct.AVFormatContext = type { ptr, ptr, ptr, ptr, ptr, i32, i32, ptr, i32, ptr, i32, ptr, ptr, i64, i64, i64, i32, i32, i32, i64, i64, ptr, i32, i32, ptr, i32, i32, i32, i32, ptr, i64, i32, i32, %struct.AVIOInterruptCB, i32, i32, i32, i32, i64, i32, i32, i32, i32, i32, i32, i32, i32, i32, i32, i32, i32, i64, i32, i32, i32, i32, i32, ptr, ptr, ptr, ptr, i32, ptr, ptr, ptr, ptr, i32, ptr, ptr, i64, ptr, ptr, ptr, i64 }
%struct.AVIOInterruptCB = type { ptr, ptr }
%struct.AVStream = type { ptr, i32, i32, ptr, ptr, %struct.AVRational, i64, i64, i64, i32, i32, %struct.AVRational, ptr, %struct.AVRational, %struct.AVPacket, i32, %struct.AVRational, i32 }
%struct.AVPacket = type { ptr, i64, i64, ptr, i32, i32, i32, ptr, i32, i64, i64, ptr, ptr, %struct.AVRational }
%struct.AVRational = type { i32, i32 }
%struct.FFStream = type { %struct.AVStream, ptr, i32, ptr, i32, ptr, i32, %struct.anon, i32, i32, %struct.FFFrac, ptr, ptr, i32, i32, i64, i64, i32, i32, i32, i64, i64, i64, i32, i64, i64, i64, i32, i32, [17 x i64], [17 x i8], [17 x i64], i64, i8, i8, %struct.AVRational, %struct.AVProbeData, ptr, i64, i32, i32, i32, ptr, i32, i32, i64, i64, ptr, %struct.AVRational }
%struct.anon = type { ptr, i32 }
%struct.FFFrac = type { i64, i64, i64 }
%struct.AVProbeData = type { ptr, ptr, i32, ptr }

; Function Attrs: alwaysinline nounwind uwtable
define internal ptr @ffstream(ptr noundef %0) #2 {
  %2 = alloca ptr, align 8
  store ptr %0, ptr %2, align 8, !tbaa !9
  %3 = load ptr, ptr %2, align 8, !tbaa !9
  ret ptr %3
}

; Function Attrs: nounwind uwtable
define void @avpriv_update_cur_dts(ptr noundef %0, ptr noundef %1, i64 noundef %2) #0 {
  %4 = alloca ptr, align 8
  %5 = alloca ptr, align 8
  %6 = alloca i64, align 8
  %7 = alloca i32, align 4
  %8 = alloca ptr, align 8
  %9 = alloca ptr, align 8
  store ptr %0, ptr %4, align 8, !tbaa !4
  store ptr %1, ptr %5, align 8, !tbaa !9
  store i64 %2, ptr %6, align 8, !tbaa !11
  call void @llvm.lifetime.start.p0(i64 4, ptr %7) #11
  store i32 0, ptr %7, align 4, !tbaa !13
  br label %10

10:                                               ; preds = %53, %3
  %11 = load i32, ptr %7, align 4, !tbaa !13
  %12 = load ptr, ptr %4, align 8, !tbaa !4
  %13 = getelementptr inbounds nuw %struct.AVFormatContext, ptr %12, i32 0, i32 6
  %14 = load i32, ptr %13, align 4, !tbaa !15
  %15 = icmp ult i32 %11, %14
  br i1 %15, label %17, label %16

16:                                               ; preds = %10
  call void @llvm.lifetime.end.p0(i64 4, ptr %7) #11
  br label %56

17:                                               ; preds = %10
  call void @llvm.lifetime.start.p0(i64 8, ptr %8) #11
  %18 = load ptr, ptr %4, align 8, !tbaa !4
  %19 = getelementptr inbounds nuw %struct.AVFormatContext, ptr %18, i32 0, i32 7
  %20 = load ptr, ptr %19, align 8, !tbaa !30
  %21 = load i32, ptr %7, align 4, !tbaa !13
  %22 = zext i32 %21 to i64
  %23 = getelementptr inbounds nuw ptr, ptr %20, i64 %22
  %24 = load ptr, ptr %23, align 8, !tbaa !9
  store ptr %24, ptr %8, align 8, !tbaa !9
  call void @llvm.lifetime.start.p0(i64 8, ptr %9) #11
  %25 = load ptr, ptr %8, align 8, !tbaa !9
  %26 = call ptr @ffstream(ptr noundef %25)
  store ptr %26, ptr %9, align 8, !tbaa !31
  %27 = load i64, ptr %6, align 8, !tbaa !11
  %28 = load ptr, ptr %8, align 8, !tbaa !9
  %29 = getelementptr inbounds nuw %struct.AVStream, ptr %28, i32 0, i32 5
  %30 = getelementptr inbounds nuw %struct.AVRational, ptr %29, i32 0, i32 1
  %31 = load i32, ptr %30, align 4, !tbaa !33
  %32 = sext i32 %31 to i64
  %33 = load ptr, ptr %5, align 8, !tbaa !9
  %34 = getelementptr inbounds nuw %struct.AVStream, ptr %33, i32 0, i32 5
  %35 = getelementptr inbounds nuw %struct.AVRational, ptr %34, i32 0, i32 0
  %36 = load i32, ptr %35, align 8, !tbaa !40
  %37 = sext i32 %36 to i64
  %38 = mul nsw i64 %32, %37
  %39 = load ptr, ptr %8, align 8, !tbaa !9
  %40 = getelementptr inbounds nuw %struct.AVStream, ptr %39, i32 0, i32 5
  %41 = getelementptr inbounds nuw %struct.AVRational, ptr %40, i32 0, i32 0
  %42 = load i32, ptr %41, align 8, !tbaa !40
  %43 = sext i32 %42 to i64
  %44 = load ptr, ptr %5, align 8, !tbaa !9
  %45 = getelementptr inbounds nuw %struct.AVStream, ptr %44, i32 0, i32 5
  %46 = getelementptr inbounds nuw %struct.AVRational, ptr %45, i32 0, i32 1
  %47 = load i32, ptr %46, align 4, !tbaa !33
  %48 = sext i32 %47 to i64
  %49 = mul nsw i64 %43, %48
  %50 = call i64 @av_rescale(i64 noundef %27, i64 noundef %38, i64 noundef %49) #12
  %51 = load ptr, ptr %9, align 8, !tbaa !31
  %52 = getelementptr inbounds nuw %struct.FFStream, ptr %51, i32 0, i32 46
  store i64 %50, ptr %52, align 8, !tbaa !41
  call void @llvm.lifetime.end.p0(i64 8, ptr %9) #11
  call void @llvm.lifetime.end.p0(i64 8, ptr %8) #11
  br label %53

53:                                               ; preds = %17
  %54 = load i32, ptr %7, align 4, !tbaa !13
  %55 = add i32 %54, 1
  store i32 %55, ptr %7, align 4, !tbaa !13
  br label %10, !llvm.loop !53

56:                                               ; preds = %16
  ret void
}