; Function Attrs: nofree nosync nounwind memory(readwrite, inaccessiblemem: none) uwtable
define void @avpriv_update_cur_dts(ptr noundef readonly captures(none) %0, ptr noundef readonly captures(none) %1, i64 noundef %2) local_unnamed_addr #0 {
  %4 = getelementptr inbounds nuw i8, ptr %0, i64 44
  %5 = load i32, ptr %4, align 4, !tbaa !4
  %.not = icmp eq i32 %5, 0
  br i1 %.not, label %._crit_edge, label %.lr.ph

.lr.ph:                                           ; preds = %3
  %6 = getelementptr inbounds nuw i8, ptr %0, i64 48
  %7 = load ptr, ptr %6, align 8, !tbaa !24
  %8 = getelementptr inbounds nuw i8, ptr %1, i64 32
  %9 = load i32, ptr %8, align 8, !tbaa !25
  %10 = sext i32 %9 to i64
  %11 = getelementptr inbounds nuw i8, ptr %1, i64 36
  %12 = load i32, ptr %11, align 4, !tbaa !32
  %13 = sext i32 %12 to i64
  %wide.trip.count = zext i32 %5 to i64
  br label %14

._crit_edge:                                      ; preds = %14, %3
  ret void

14:                                               ; preds = %.lr.ph, %14
  %indvars.iv = phi i64 [ 0, %.lr.ph ], [ %indvars.iv.next, %14 ]
  %15 = getelementptr inbounds nuw ptr, ptr %7, i64 %indvars.iv
  %16 = load ptr, ptr %15, align 8, !tbaa !33
  %17 = getelementptr inbounds nuw i8, ptr %16, i64 32
  %18 = getelementptr inbounds nuw i8, ptr %16, i64 36
  %19 = load i32, ptr %18, align 4, !tbaa !32
  %20 = sext i32 %19 to i64
  %21 = mul nsw i64 %10, %20
  %22 = load i32, ptr %17, align 8, !tbaa !25
  %23 = sext i32 %22 to i64
  %24 = mul nsw i64 %13, %23
  %25 = tail call i64 @av_rescale(i64 noundef %2, i64 noundef %21, i64 noundef %24) #16
  %26 = getelementptr inbounds nuw i8, ptr %16, i64 840
  store i64 %25, ptr %26, align 8, !tbaa !35
  %indvars.iv.next = add nuw nsw i64 %indvars.iv, 1
  %exitcond.not = icmp eq i64 %indvars.iv.next, %wide.trip.count
  br i1 %exitcond.not, label %._crit_edge, label %14, !llvm.loop !48
}